; Function Attrs: inlinehint mustprogress uwtable
define internal void @"_ZN3$_18__invokeEv"() #4 align 2 personality ptr @__gxx_personality_v0 {
  %1 = load atomic i64, ptr getelementptr inbounds nuw (i8, ptr @FLAGS_minloglevel, i64 88) acquire, align 8
  %.not.i.i.i.i = icmp eq i64 %1, 0
  br i1 %.not.i.i.i.i, label %_ZNK4absl14flags_internal9FlagValueIiLNS0_20FlagValueStorageKindE0EE3GetERKNS0_12SequenceLockERi.exit.i.i.i.i, label %"_ZNK3$_1clEv.exit", !prof !20

_ZNK4absl14flags_internal9FlagValueIiLNS0_20FlagValueStorageKindE0EE3GetERKNS0_12SequenceLockERi.exit.i.i.i.i: ; preds = %0
  %2 = tail call noundef i64 @_ZNK4absl14flags_internal8FlagImpl11ReadOneWordEv(ptr noundef nonnull align 8 dereferenceable(96) @FLAGS_minloglevel)
  br label %"_ZNK3$_1clEv.exit"

"_ZNK3$_1clEv.exit":                              ; preds = %0, %_ZNK4absl14flags_internal9FlagValueIiLNS0_20FlagValueStorageKindE0EE3GetERKNS0_12SequenceLockERi.exit.i.i.i.i
  %.sroa.0.0.in.i.i.i.i = phi i64 [ %2, %_ZNK4absl14flags_internal9FlagValueIiLNS0_20FlagValueStorageKindE0EE3GetERKNS0_12SequenceLockERi.exit.i.i.i.i ], [ %1, %0 ]
  %.sroa.0.0.i.i.i.i = trunc i64 %.sroa.0.0.in.i.i.i.i to i32
  tail call void @_ZN4absl12log_internal17RawSetMinLogLevelENS_18LogSeverityAtLeastE(i32 noundef %.sroa.0.0.i.i.i.i)
  ret void
}